target datalayout = "e-m:e-p270:32:32-p271:32:32-p272:64:64-i64:64-i128:128-f80:128-n8:16:32:64-S128"
target triple = "x86_64-pc-linux-gnu"

%"class.icu_77::CollationFastLatinBuilder" = type <{ %"class.icu_77::UObject", i64, i64, [448 x [2 x i64]], %"class.icu_77::UVector64", %"class.icu_77::UVector64", ptr, [4 x i32], i32, i32, i32, i32, i8, [7 x i8], %"class.icu_77::UnicodeString", i32, [4 x i8] }>
%"class.icu_77::UObject" = type { ptr }
%"class.icu_77::UVector64" = type { %"class.icu_77::UObject", i32, i32, i32, ptr }
%"class.icu_77::UnicodeString" = type { %"class.icu_77::Replaceable", %"union.icu_77::UnicodeString::StackBufferOrFields" }
%"class.icu_77::Replaceable" = type { %"class.icu_77::UObject" }
%"union.icu_77::UnicodeString::StackBufferOrFields" = type { %struct.anon.0, [32 x i8] }
%struct.anon.0 = type { i16, i32, i32, ptr }

; Function Attrs: mustprogress nounwind uwtable
define void @_ZN6icu_7725CollationFastLatinBuilderD2Ev(ptr noundef nonnull align 8 dereferenceable(7372) %0) unnamed_addr #5 align 2 personality ptr @__gxx_personality_v0 {
  %2 = alloca ptr, align 8
  store ptr %0, ptr %2, align 8, !tbaa !3
  %3 = load ptr, ptr %2, align 8
  store ptr getelementptr inbounds inrange(-16, 24) ({ [5 x ptr] }, ptr @_ZTVN6icu_7725CollationFastLatinBuilderE, i32 0, i32 0, i32 2), ptr %3, align 8, !tbaa !9
  %4 = getelementptr inbounds nuw %"class.icu_77::CollationFastLatinBuilder", ptr %3, i32 0, i32 6
  %5 = load ptr, ptr %4, align 8, !tbaa !22
  invoke void @uprv_free_77(ptr noundef %5)
          to label %6 unwind label %10

6:                                                ; preds = %1
  %7 = getelementptr inbounds nuw %"class.icu_77::CollationFastLatinBuilder", ptr %3, i32 0, i32 14
  call void @_ZN6icu_7713UnicodeStringD1Ev(ptr noundef nonnull align 8 dereferenceable(64) %7) #9
  %8 = getelementptr inbounds nuw %"class.icu_77::CollationFastLatinBuilder", ptr %3, i32 0, i32 5
  call void @_ZN6icu_779UVector64D1Ev(ptr noundef nonnull align 8 dereferenceable(32) %8) #9
  %9 = getelementptr inbounds nuw %"class.icu_77::CollationFastLatinBuilder", ptr %3, i32 0, i32 4
  call void @_ZN6icu_779UVector64D1Ev(ptr noundef nonnull align 8 dereferenceable(32) %9) #9
  call void @_ZN6icu_777UObjectD2Ev(ptr noundef nonnull align 8 dereferenceable(8) %3) #9
  ret void

10:                                               ; preds = %1
  %11 = landingpad { ptr, i32 }
          catch ptr null
  %12 = extractvalue { ptr, i32 } %11, 0
  call void @__clang_call_terminate(ptr %12) #10
  unreachable
}