; Function Attrs: mustprogress nounwind uwtable
define void @_ZN6icu_7725CollationFastLatinBuilderD2Ev(ptr noundef nonnull align 8 dereferenceable(7372) initializes((0, 8)) %0) unnamed_addr #3 align 2 personality ptr @__gxx_personality_v0 {
  store ptr getelementptr inbounds nuw inrange(-16, 24) (i8, ptr @_ZTVN6icu_7725CollationFastLatinBuilderE, i64 16), ptr %0, align 8, !tbaa !3
  %2 = getelementptr inbounds nuw i8, ptr %0, i64 7256
  %3 = load ptr, ptr %2, align 8, !tbaa !6
  invoke void @uprv_free_77(ptr noundef %3)
          to label %4 unwind label %8

4:                                                ; preds = %1
  %5 = getelementptr inbounds nuw i8, ptr %0, i64 7304
  tail call void @_ZN6icu_7713UnicodeStringD1Ev(ptr noundef nonnull align 8 dereferenceable(64) %5) #13
  %6 = getelementptr inbounds nuw i8, ptr %0, i64 7224
  tail call void @_ZN6icu_779UVector64D1Ev(ptr noundef nonnull align 8 dereferenceable(32) %6) #13
  %7 = getelementptr inbounds nuw i8, ptr %0, i64 7192
  tail call void @_ZN6icu_779UVector64D1Ev(ptr noundef nonnull align 8 dereferenceable(32) %7) #13
  tail call void @_ZN6icu_777UObjectD2Ev(ptr noundef nonnull align 8 dereferenceable(8) %0) #13
  ret void

8:                                                ; preds = %1
  %9 = landingpad { ptr, i32 }
          catch ptr null
  %10 = extractvalue { ptr, i32 } %9, 0
  tail call void @__clang_call_terminate(ptr %10) #14
  unreachable
}